target datalayout = "e-m:e-p270:32:32-p271:32:32-p272:64:64-i64:64-i128:128-f80:128-n8:16:32:64-S128"
target triple = "x86_64-pc-linux-gnu"

%struct.Abc_Obj_t_ = type { ptr, ptr, i32, i32, %struct.Vec_Int_t_, %struct.Vec_Int_t_, %union.anon, %union.anon.0 }
%struct.Vec_Int_t_ = type { i32, i32, ptr }
%union.anon = type { ptr }
%union.anon.0 = type { ptr }

; Function Attrs: nounwind uwtable
define void @Abc_NodeDecomposeSort(ptr noundef %0, i32 noundef %1, ptr noundef %2, i32 noundef %3) #0 {
  %5 = alloca ptr, align 8
  %6 = alloca i32, align 4
  %7 = alloca ptr, align 8
  %8 = alloca i32, align 4
  %9 = alloca [15 x ptr], align 16
  %10 = alloca i32, align 4
  %11 = alloca i32, align 4
  %12 = alloca i32, align 4
  %13 = alloca i32, align 4
  store ptr %0, ptr %5, align 8, !tbaa !113
  store i32 %1, ptr %6, align 4, !tbaa !8
  store ptr %2, ptr %7, align 8, !tbaa !58
  store i32 %3, ptr %8, align 4, !tbaa !8
  call void @llvm.lifetime.start.p0(i64 120, ptr %9) #9
  call void @llvm.lifetime.start.p0(i64 4, ptr %10) #9
  call void @llvm.lifetime.start.p0(i64 4, ptr %11) #9
  call void @llvm.lifetime.start.p0(i64 4, ptr %12) #9
  call void @llvm.lifetime.start.p0(i64 4, ptr %13) #9
  store i32 0, ptr %10, align 4, !tbaa !8
  br label %14

14:                                               ; preds = %27, %4
  %15 = load i32, ptr %10, align 4, !tbaa !8
  %16 = load i32, ptr %6, align 4, !tbaa !8
  %17 = icmp slt i32 %15, %16
  br i1 %17, label %18, label %30

18:                                               ; preds = %14
  %19 = load ptr, ptr %5, align 8, !tbaa !113
  %20 = load i32, ptr %10, align 4, !tbaa !8
  %21 = sext i32 %20 to i64
  %22 = getelementptr inbounds ptr, ptr %19, i64 %21
  %23 = load ptr, ptr %22, align 8, !tbaa !10
  %24 = load i32, ptr %10, align 4, !tbaa !8
  %25 = sext i32 %24 to i64
  %26 = getelementptr inbounds [15 x ptr], ptr %9, i64 0, i64 %25
  store ptr %23, ptr %26, align 8, !tbaa !10
  br label %27

27:                                               ; preds = %18
  %28 = load i32, ptr %10, align 4, !tbaa !8
  %29 = add nsw i32 %28, 1
  store i32 %29, ptr %10, align 4, !tbaa !8
  br label %14, !llvm.loop !115

30:                                               ; preds = %14
  store i32 0, ptr %10, align 4, !tbaa !8
  br label %31

31:                                               ; preds = %78, %30
  %32 = load i32, ptr %10, align 4, !tbaa !8
  %33 = load i32, ptr %8, align 4, !tbaa !8
  %34 = icmp slt i32 %32, %33
  br i1 %34, label %35, label %81

35:                                               ; preds = %31
  store i32 -1, ptr %12, align 4, !tbaa !8
  store i32 1000000, ptr %13, align 4, !tbaa !8
  store i32 0, ptr %11, align 4, !tbaa !8
  br label %36

36:                                               ; preds = %66, %35
  %37 = load i32, ptr %11, align 4, !tbaa !8
  %38 = load i32, ptr %6, align 4, !tbaa !8
  %39 = icmp slt i32 %37, %38
  br i1 %39, label %40, label %69

40:                                               ; preds = %36
  %41 = load i32, ptr %11, align 4, !tbaa !8
  %42 = sext i32 %41 to i64
  %43 = getelementptr inbounds [15 x ptr], ptr %9, i64 0, i64 %42
  %44 = load ptr, ptr %43, align 8, !tbaa !10
  %45 = icmp ne ptr %44, null
  br i1 %45, label %46, label %65

46:                                               ; preds = %40
  %47 = load i32, ptr %13, align 4, !tbaa !8
  %48 = load i32, ptr %11, align 4, !tbaa !8
  %49 = sext i32 %48 to i64
  %50 = getelementptr inbounds [15 x ptr], ptr %9, i64 0, i64 %49
  %51 = load ptr, ptr %50, align 8, !tbaa !10
  %52 = getelementptr inbounds nuw %struct.Abc_Obj_t_, ptr %51, i32 0, i32 3
  %53 = load i32, ptr %52, align 4
  %54 = lshr i32 %53, 12
  %55 = icmp sgt i32 %47, %54
  br i1 %55, label %56, label %65

56:                                               ; preds = %46
  %57 = load i32, ptr %11, align 4, !tbaa !8
  %58 = sext i32 %57 to i64
  %59 = getelementptr inbounds [15 x ptr], ptr %9, i64 0, i64 %58
  %60 = load ptr, ptr %59, align 8, !tbaa !10
  %61 = getelementptr inbounds nuw %struct.Abc_Obj_t_, ptr %60, i32 0, i32 3
  %62 = load i32, ptr %61, align 4
  %63 = lshr i32 %62, 12
  store i32 %63, ptr %13, align 4, !tbaa !8
  %64 = load i32, ptr %11, align 4, !tbaa !8
  store i32 %64, ptr %12, align 4, !tbaa !8
  br label %65

65:                                               ; preds = %56, %46, %40
  br label %66

66:                                               ; preds = %65
  %67 = load i32, ptr %11, align 4, !tbaa !8
  %68 = add nsw i32 %67, 1
  store i32 %68, ptr %11, align 4, !tbaa !8
  br label %36, !llvm.loop !116

69:                                               ; preds = %36
  %70 = load i32, ptr %12, align 4, !tbaa !8
  %71 = load ptr, ptr %7, align 8, !tbaa !58
  %72 = load i32, ptr %10, align 4, !tbaa !8
  %73 = sext i32 %72 to i64
  %74 = getelementptr inbounds i32, ptr %71, i64 %73
  store i32 %70, ptr %74, align 4, !tbaa !8
  %75 = load i32, ptr %12, align 4, !tbaa !8
  %76 = sext i32 %75 to i64
  %77 = getelementptr inbounds [15 x ptr], ptr %9, i64 0, i64 %76
  store ptr null, ptr %77, align 8, !tbaa !10
  br label %78

78:                                               ; preds = %69
  %79 = load i32, ptr %10, align 4, !tbaa !8
  %80 = add nsw i32 %79, 1
  store i32 %80, ptr %10, align 4, !tbaa !8
  br label %31, !llvm.loop !117

81:                                               ; preds = %31
  call void @llvm.lifetime.end.p0(i64 4, ptr %13) #9
  call void @llvm.lifetime.end.p0(i64 4, ptr %12) #9
  call void @llvm.lifetime.end.p0(i64 4, ptr %11) #9
  call void @llvm.lifetime.end.p0(i64 4, ptr %10) #9
  call void @llvm.lifetime.end.p0(i64 120, ptr %9) #9
  ret void
}