; Function Attrs: nofree norecurse nosync nounwind memory(read, argmem: readwrite, inaccessiblemem: none) uwtable
define void @Abc_NodeDecomposeSort(ptr noundef readonly captures(none) %0, i32 noundef %1, ptr noundef writeonly captures(none) %2, i32 noundef %3) local_unnamed_addr #7 {
  %5 = alloca [15 x ptr], align 16
  call void @llvm.lifetime.start.p0(i64 120, ptr nonnull %5) #16
  %6 = icmp sgt i32 %1, 0
  br i1 %6, label %.preheader29, label %.preheader29.thread

.preheader29:                                     ; preds = %4
  %7 = zext nneg i32 %1 to i64
  %8 = shl nuw nsw i64 %7, 3
  call void @llvm.memcpy.p0.p0.i64(ptr nonnull align 16 %5, ptr align 8 %0, i64 %8, i1 false), !tbaa !77
  %9 = icmp sgt i32 %3, 0
  br i1 %9, label %.preheader.us.preheader, label %._crit_edge36

.preheader29.thread:                              ; preds = %4
  %10 = icmp sgt i32 %3, 0
  br i1 %10, label %.preheader.lr.ph.split, label %._crit_edge36

.preheader.us.preheader:                          ; preds = %.preheader29
  %wide.trip.count44 = zext nneg i32 %3 to i64
  %wide.trip.count = zext nneg i32 %1 to i64
  br label %.preheader.us

.preheader.us:                                    ; preds = %.preheader.us.preheader, %._crit_edge.us
  %indvars.iv41 = phi i64 [ 0, %.preheader.us.preheader ], [ %indvars.iv.next42, %._crit_edge.us ]
  br label %11

11:                                               ; preds = %.preheader.us, %20
  %indvars.iv = phi i64 [ 0, %.preheader.us ], [ %indvars.iv.next, %20 ]
  %.033.us = phi i32 [ 1000000, %.preheader.us ], [ %.1.us, %20 ]
  %.02032.us = phi i32 [ -1, %.preheader.us ], [ %.121.us, %20 ]
  %12 = getelementptr inbounds nuw [15 x ptr], ptr %5, i64 0, i64 %indvars.iv
  %13 = load ptr, ptr %12, align 8, !tbaa !77
  %.not.us = icmp eq ptr %13, null
  br i1 %.not.us, label %20, label %14

14:                                               ; preds = %11
  %15 = getelementptr inbounds nuw i8, ptr %13, i64 20
  %16 = load i32, ptr %15, align 4
  %17 = lshr i32 %16, 12
  %18 = icmp sgt i32 %.033.us, %17
  %19 = trunc nuw nsw i64 %indvars.iv to i32
  %spec.select.us = select i1 %18, i32 %19, i32 %.02032.us
  %spec.select28.us = tail call i32 @llvm.smin.i32(i32 %.033.us, i32 %17)
  br label %20

20:                                               ; preds = %14, %11
  %.121.us = phi i32 [ %.02032.us, %11 ], [ %spec.select.us, %14 ]
  %.1.us = phi i32 [ %.033.us, %11 ], [ %spec.select28.us, %14 ]
  %indvars.iv.next = add nuw nsw i64 %indvars.iv, 1
  %exitcond.not = icmp eq i64 %indvars.iv.next, %wide.trip.count
  br i1 %exitcond.not, label %._crit_edge.us, label %11, !llvm.loop !78

._crit_edge.us:                                   ; preds = %20
  %21 = getelementptr inbounds nuw i32, ptr %2, i64 %indvars.iv41
  store i32 %.121.us, ptr %21, align 4, !tbaa !40
  %22 = sext i32 %.121.us to i64
  %23 = getelementptr inbounds [15 x ptr], ptr %5, i64 0, i64 %22
  store ptr null, ptr %23, align 8, !tbaa !77
  %indvars.iv.next42 = add nuw nsw i64 %indvars.iv41, 1
  %exitcond45.not = icmp eq i64 %indvars.iv.next42, %wide.trip.count44
  br i1 %exitcond45.not, label %._crit_edge36, label %.preheader.us, !llvm.loop !79

.preheader.lr.ph.split:                           ; preds = %.preheader29.thread
  %24 = zext nneg i32 %3 to i64
  %25 = shl nuw nsw i64 %24, 2
  tail call void @llvm.memset.p0.i64(ptr align 4 %2, i8 -1, i64 %25, i1 false), !tbaa !40
  br label %._crit_edge36

._crit_edge36:                                    ; preds = %._crit_edge.us, %.preheader29.thread, %.preheader.lr.ph.split, %.preheader29
  call void @llvm.lifetime.end.p0(i64 120, ptr nonnull %5) #16
  ret void
}